target datalayout = "e-m:e-p270:32:32-p271:32:32-p272:64:64-i64:64-i128:128-f80:128-n8:16:32:64-S128"
target triple = "x86_64-pc-linux-gnu"

@.str.5 = private unnamed_addr constant [21 x i8] c"TEST CAN'T BE FOUND!\00", align 1

; Function Attrs: nounwind uwtable
define void @showTests(ptr noundef %0) #0 {
  %2 = alloca ptr, align 8
  %3 = alloca [512 x ptr], align 16
  store ptr %0, ptr %2, align 8, !tbaa !3
  call void @llvm.lifetime.start.p0(i64 4096, ptr %3) #12
  %4 = load ptr, ptr %2, align 8, !tbaa !3
  %5 = icmp eq ptr %4, null
  br i1 %5, label %6, label %7

6:                                                ; preds = %1
  call void (ptr, ...) @log_err(ptr noundef @.str.5)
  br label %7

7:                                                ; preds = %6, %1
  %8 = load ptr, ptr %2, align 8, !tbaa !3
  %9 = getelementptr inbounds [512 x ptr], ptr %3, i64 0, i64 0
  call void @iterateTestsWithLevel(ptr noundef %8, i32 noundef 0, ptr noundef %9, i32 noundef 1)
  call void @llvm.lifetime.end.p0(i64 4096, ptr %3) #12
  ret void
}