; Function Attrs: nounwind uwtable
define void @showTests(ptr noundef %0) local_unnamed_addr #0 {
  %2 = alloca [512 x ptr], align 16
  call void @llvm.lifetime.start.p0(i64 4096, ptr nonnull %2) #23
  %3 = icmp eq ptr %0, null
  br i1 %3, label %.split3, label %.split

.split:                                           ; preds = %1
  call fastcc void @iterateTestsWithLevel(ptr noundef nonnull %0, i32 noundef 0, ptr noundef %2, i32 noundef 1)
  br label %5

.split3:                                          ; preds = %1
  tail call void (ptr, ...) @log_err(ptr noundef nonnull @.str.5)
  %4 = tail call double @uprv_getRawUTCtime_77() #23
  br label %5

5:                                                ; preds = %.split, %.split3
  call void @llvm.lifetime.end.p0(i64 4096, ptr nonnull %2) #23
  ret void
}